; Function Attrs: mustprogress nofree nounwind willreturn uwtable
define internal range(i32 -1, 1) i32 @OnSetPrecision(ptr readnone captures(none) %0, ptr noundef readonly captures(none) %1, ptr readnone captures(none) %2, ptr readnone captures(none) %3, ptr readnone captures(none) %4, i32 %5) #22 {
  %7 = getelementptr inbounds nuw i8, ptr %1, i64 24
  %8 = tail call i64 @strtoll(ptr noundef nonnull captures(none) %7, ptr noundef null, i32 noundef 10) #28
  %9 = icmp sgt i64 %8, -2
  br i1 %9, label %10, label %11

10:                                               ; preds = %6
  store i64 %8, ptr getelementptr inbounds nuw (i8, ptr @executor_globals, i64 552), align 8, !tbaa !219
  br label %11

11:                                               ; preds = %6, %10
  %.0 = phi i32 [ 0, %10 ], [ -1, %6 ]
  ret i32 %.0
}